target datalayout = "e-m:e-p270:32:32-p271:32:32-p272:64:64-i64:64-i128:128-f80:128-n8:16:32:64-S128"
target triple = "x86_64-pc-linux-gnu"

%struct.SDL_Gamepad = type { ptr, i32, ptr, i32, i32, ptr, i32, ptr, ptr, ptr, i64, ptr }

@.str.4 = private unnamed_addr constant [26 x i8] c"Parameter '%s' is invalid\00", align 1
@.str.5 = private unnamed_addr constant [8 x i8] c"gamepad\00", align 1

; Function Attrs: nounwind uwtable
define internal i32 @SDL_GetGamepadButtonLabelForFaceStyle(i32 noundef %0, i32 noundef %1) #0 {
  %3 = alloca i32, align 4
  %4 = alloca i32, align 4
  %5 = alloca i32, align 4
  store i32 %0, ptr %3, align 4
  store i32 %1, ptr %4, align 4
  call void @llvm.lifetime.start.p0(i64 4, ptr %5) #8
  store i32 0, ptr %5, align 4
  %6 = load i32, ptr %3, align 4
  switch i32 %6, label %39 [
    i32 1, label %7
    i32 2, label %15
    i32 3, label %23
    i32 4, label %31
  ]

7:                                                ; preds = %2
  %8 = load i32, ptr %4, align 4
  switch i32 %8, label %13 [
    i32 0, label %9
    i32 1, label %10
    i32 2, label %11
    i32 3, label %12
  ]

9:                                                ; preds = %7
  store i32 1, ptr %5, align 4
  br label %14

10:                                               ; preds = %7
  store i32 2, ptr %5, align 4
  br label %14

11:                                               ; preds = %7
  store i32 3, ptr %5, align 4
  br label %14

12:                                               ; preds = %7
  store i32 4, ptr %5, align 4
  br label %14

13:                                               ; preds = %7
  br label %14

14:                                               ; preds = %13, %12, %11, %10, %9
  br label %40

15:                                               ; preds = %2
  %16 = load i32, ptr %4, align 4
  switch i32 %16, label %21 [
    i32 0, label %17
    i32 1, label %18
    i32 2, label %19
    i32 3, label %20
  ]

17:                                               ; preds = %15
  store i32 1, ptr %5, align 4
  br label %22

18:                                               ; preds = %15
  store i32 3, ptr %5, align 4
  br label %22

19:                                               ; preds = %15
  store i32 2, ptr %5, align 4
  br label %22

20:                                               ; preds = %15
  store i32 4, ptr %5, align 4
  br label %22

21:                                               ; preds = %15
  br label %22

22:                                               ; preds = %21, %20, %19, %18, %17
  br label %40

23:                                               ; preds = %2
  %24 = load i32, ptr %4, align 4
  switch i32 %24, label %29 [
    i32 0, label %25
    i32 1, label %26
    i32 2, label %27
    i32 3, label %28
  ]

25:                                               ; preds = %23
  store i32 2, ptr %5, align 4
  br label %30

26:                                               ; preds = %23
  store i32 1, ptr %5, align 4
  br label %30

27:                                               ; preds = %23
  store i32 4, ptr %5, align 4
  br label %30

28:                                               ; preds = %23
  store i32 3, ptr %5, align 4
  br label %30

29:                                               ; preds = %23
  br label %30

30:                                               ; preds = %29, %28, %27, %26, %25
  br label %40

31:                                               ; preds = %2
  %32 = load i32, ptr %4, align 4
  switch i32 %32, label %37 [
    i32 0, label %33
    i32 1, label %34
    i32 2, label %35
    i32 3, label %36
  ]

33:                                               ; preds = %31
  store i32 5, ptr %5, align 4
  br label %38

34:                                               ; preds = %31
  store i32 6, ptr %5, align 4
  br label %38

35:                                               ; preds = %31
  store i32 7, ptr %5, align 4
  br label %38

36:                                               ; preds = %31
  store i32 8, ptr %5, align 4
  br label %38

37:                                               ; preds = %31
  br label %38

38:                                               ; preds = %37, %36, %35, %34, %33
  br label %40

39:                                               ; preds = %2
  br label %40

40:                                               ; preds = %39, %38, %30, %22, %14
  %41 = load i32, ptr %5, align 4
  call void @llvm.lifetime.end.p0(i64 4, ptr %5) #8
  ret i32 %41
}

; Function Attrs: nounwind uwtable
define hidden i32 @SDL_GetGamepadButtonLabel_REAL(ptr noundef %0, i32 noundef %1) #0 {
  %3 = alloca i32, align 4
  %4 = alloca ptr, align 8
  %5 = alloca i32, align 4
  %6 = alloca i32, align 4
  %7 = alloca i32, align 4
  store ptr %0, ptr %4, align 8
  store i32 %1, ptr %5, align 4
  call void @llvm.lifetime.start.p0(i64 4, ptr %6) #8
  call void @SDL_LockJoysticks_REAL()
  %8 = load ptr, ptr %4, align 8
  %9 = call zeroext i1 @SDL_ObjectValid(ptr noundef %8, i32 noundef 5)
  br i1 %9, label %10, label %15

10:                                               ; preds = %2
  %11 = load ptr, ptr %4, align 8
  %12 = getelementptr inbounds nuw %struct.SDL_Gamepad, ptr %11, i32 0, i32 0
  %13 = load ptr, ptr %12, align 8
  %14 = call zeroext i1 @SDL_IsJoystickValid(ptr noundef %13)
  br i1 %14, label %17, label %15

15:                                               ; preds = %10, %2
  %16 = call zeroext i1 (ptr, ...) @SDL_SetError_REAL(ptr noundef @.str.4, ptr noundef @.str.5)
  call void @SDL_UnlockJoysticks_REAL()
  store i32 0, ptr %3, align 4
  store i32 1, ptr %7, align 4
  br label %24

17:                                               ; preds = %10
  %18 = load ptr, ptr %4, align 8
  %19 = getelementptr inbounds nuw %struct.SDL_Gamepad, ptr %18, i32 0, i32 4
  %20 = load i32, ptr %19, align 4
  store i32 %20, ptr %6, align 4
  call void @SDL_UnlockJoysticks_REAL()
  %21 = load i32, ptr %6, align 4
  %22 = load i32, ptr %5, align 4
  %23 = call i32 @SDL_GetGamepadButtonLabelForFaceStyle(i32 noundef %21, i32 noundef %22)
  store i32 %23, ptr %3, align 4
  store i32 1, ptr %7, align 4
  br label %24

24:                                               ; preds = %17, %15
  call void @llvm.lifetime.end.p0(i64 4, ptr %6) #8
  %25 = load i32, ptr %3, align 4
  ret i32 %25
}