; Function Attrs: nounwind uwtable
define hidden range(i32 0, 9) i32 @SDL_GetGamepadButtonLabel_REAL(ptr noundef %0, i32 noundef %1) local_unnamed_addr #0 {
  tail call void @SDL_LockJoysticks_REAL() #10
  %3 = tail call zeroext i1 @SDL_ObjectValid(ptr noundef %0, i32 noundef 5) #10
  br i1 %3, label %4, label %7

4:                                                ; preds = %2
  %5 = load ptr, ptr %0, align 8
  %6 = tail call zeroext i1 @SDL_IsJoystickValid(ptr noundef %5) #10
  br i1 %6, label %9, label %7

7:                                                ; preds = %4, %2
  %8 = tail call zeroext i1 (ptr, ...) @SDL_SetError_REAL(ptr noundef nonnull @.str.4, ptr noundef nonnull @.str.5) #10
  tail call void @SDL_UnlockJoysticks_REAL() #10
  br label %SDL_GetGamepadButtonLabelForFaceStyle.exit

9:                                                ; preds = %4
  %10 = getelementptr inbounds nuw i8, ptr %0, i64 28
  %11 = load i32, ptr %10, align 4
  tail call void @SDL_UnlockJoysticks_REAL() #10
  switch i32 %11, label %SDL_GetGamepadButtonLabelForFaceStyle.exit [
    i32 1, label %12
    i32 2, label %14
    i32 3, label %16
    i32 4, label %18
  ]

12:                                               ; preds = %9
  %13 = icmp ult i32 %1, 4
  %switch.offset = add nsw i32 %1, 1
  %spec.select = select i1 %13, i32 %switch.offset, i32 0
  br label %SDL_GetGamepadButtonLabelForFaceStyle.exit

14:                                               ; preds = %9
  %15 = icmp ult i32 %1, 4
  br i1 %15, label %switch.lookup5, label %SDL_GetGamepadButtonLabelForFaceStyle.exit

16:                                               ; preds = %9
  %17 = icmp ult i32 %1, 4
  br i1 %17, label %switch.lookup6, label %SDL_GetGamepadButtonLabelForFaceStyle.exit

18:                                               ; preds = %9
  %19 = icmp ult i32 %1, 4
  %switch.offset10 = add nsw i32 %1, 5
  %spec.select11 = select i1 %19, i32 %switch.offset10, i32 0
  br label %SDL_GetGamepadButtonLabelForFaceStyle.exit

switch.lookup5:                                   ; preds = %14
  %20 = zext nneg i32 %1 to i64
  %switch.gep = getelementptr inbounds nuw [4 x i32], ptr @switch.table.SDL_GetGamepadButtonLabel_REAL, i64 0, i64 %20
  %switch.load = load i32, ptr %switch.gep, align 4
  br label %SDL_GetGamepadButtonLabelForFaceStyle.exit

switch.lookup6:                                   ; preds = %16
  %21 = zext nneg i32 %1 to i64
  %switch.gep7 = getelementptr inbounds nuw [4 x i32], ptr @switch.table.SDL_GetGamepadButtonLabel_REAL.2, i64 0, i64 %21
  %switch.load8 = load i32, ptr %switch.gep7, align 4
  br label %SDL_GetGamepadButtonLabelForFaceStyle.exit

SDL_GetGamepadButtonLabelForFaceStyle.exit:       ; preds = %18, %12, %switch.lookup6, %16, %switch.lookup5, %14, %9, %7
  %.0 = phi i32 [ 0, %7 ], [ 0, %9 ], [ 0, %16 ], [ 0, %14 ], [ %switch.load, %switch.lookup5 ], [ %switch.load8, %switch.lookup6 ], [ %spec.select, %12 ], [ %spec.select11, %18 ]
  ret i32 %.0
}